target datalayout = "e-m:e-p270:32:32-p271:32:32-p272:64:64-i64:64-i128:128-f80:128-n8:16:32:64-S128"
target triple = "x86_64-pc-linux-gnu"

@_ZN9grpc_core22SubchannelStreamClient9CallStateD1Ev = unnamed_addr alias void (ptr), ptr @_ZN9grpc_core22SubchannelStreamClient9CallStateD2Ev

; Function Attrs: mustprogress nounwind uwtable
define void @_ZN9grpc_core22SubchannelStreamClient9CallState25AfterCallStackDestructionEPvN4absl12lts_202407226StatusE(ptr noundef %0, ptr noundef %1) #5 align 2 {
  %3 = alloca ptr, align 8
  %4 = alloca ptr, align 8
  %5 = alloca ptr, align 8
  store ptr %0, ptr %3, align 8, !tbaa !289
  store ptr %1, ptr %4, align 8, !tbaa !320
  call void @llvm.lifetime.start.p0(i64 8, ptr %5) #3
  %6 = load ptr, ptr %3, align 8, !tbaa !289
  store ptr %6, ptr %5, align 8, !tbaa !107
  %7 = load ptr, ptr %5, align 8, !tbaa !107
  %8 = icmp eq ptr %7, null
  br i1 %8, label %10, label %9

9:                                                ; preds = %2
  call void @_ZN9grpc_core22SubchannelStreamClient9CallStateD1Ev(ptr noundef nonnull align 8 dereferenceable(3576) %7) #3
  call void @_ZdlPvm(ptr noundef %7, i64 noundef 3576) #29
  br label %10

10:                                               ; preds = %9, %2
  call void @llvm.lifetime.end.p0(i64 8, ptr %5) #3
  ret void
}