; Function Attrs: mustprogress nounwind uwtable
define void @_ZN9grpc_core22SubchannelStreamClient9CallState25AfterCallStackDestructionEPvN4absl12lts_202407226StatusE(ptr noundef %0, ptr readnone captures(none) %1) #5 align 2 {
  %3 = icmp eq ptr %0, null
  br i1 %3, label %5, label %4

4:                                                ; preds = %2
  tail call void @_ZN9grpc_core22SubchannelStreamClient9CallStateD1Ev(ptr noundef nonnull align 8 dereferenceable(3576) %0) #31
  tail call void @_ZdlPvm(ptr noundef nonnull %0, i64 noundef 3576) #36
  br label %5

5:                                                ; preds = %4, %2
  ret void
}